(dp0
S'team-game-data'
p1
(lp2
(dp3
V_type
p4
Vteam
p5
sV_id
p6
V1
p7
sV_source
p8
(dp9
VunwantedGames
p10
(lp11
sVreviewedGames
p12
(lp13
I4590
asVimportantGames
p14
(lp15
ssV_index
p16
Vteam-game-data
p17
sasS'games_mapping'
p18
(dp19
Vgames
p20
(dp21
Vmappings
p22
(dp23
V_default_
p24
(dp25
Vproperties
p26
(dp27
VredTeamScore
p28
(dp29
Vtype
p30
Vinteger
p31
ssVblueTeamScore
p32
(dp33
Vtype
p34
Vinteger
p35
ssVgameId
p36
(dp37
Vtype
p38
Vinteger
p39
ssVblueTeams
p40
(dp41
Vtype
p42
Vinteger
p43
ssVcompetition
p44
(dp45
Vtype
p46
Vkeyword
p47
ssVcomments
p48
(dp49
Vtype
p50
Vtext
p51
ssVwinningAlliance
p52
(dp53
Vtype
p54
Vkeyword
p55
ssVredTeams
p56
(dp57
Vtype
p58
Vinteger
p59
ssssVPractice
p60
(dp61
Vproperties
p62
(dp63
VredTeamScore
p64
(dp65
Vtype
p66
Vinteger
p67
ssVblueTeamScore
p68
(dp69
Vtype
p70
Vinteger
p71
ssVgameId
p72
(dp73
Vtype
p74
Vinteger
p75
ssVblueTeams
p76
(dp77
Vtype
p78
Vinteger
p79
ssVcompetition
p80
(dp81
Vtype
p82
Vkeyword
p83
ssVcomments
p84
(dp85
Vtype
p86
Vtext
p87
ssVdate
p88
(dp89
Vtype
p90
Vlong
p91
ssVwinningAlliance
p92
(dp93
Vtype
p94
Vkeyword
p95
ssVredTeams
p96
(dp97
Vtype
p98
Vinteger
p99
sssssssS'team_game_data_mapping'
p100
(dp101
Vteam-game-data
p102
(dp103
Vmappings
p104
(dp105
V_default_
p106
(dp107
Vproperties
p108
(dp109
VunwantedGames
p110
(dp111
Vtype
p112
Vinteger
p113
ssVimportantGames
p114
(dp115
Vtype
p116
Vinteger
p117
ssVreviewedGames
p118
(dp119
Vtype
p120
Vinteger
p121
ssssVteam
p122
(dp123
Vproperties
p124
(dp125
VunwantedGames
p126
(dp127
Vtype
p128
Vinteger
p129
ssVimportantGames
p130
(dp131
Vtype
p132
Vinteger
p133
ssVreviewedGames
p134
(dp135
Vtype
p136
Vinteger
p137
sssssssS'games'
p138
(lp139
(dp140
V_type
p141
VPractice
p142
sV_id
p143
V4590
p144
sV_source
p145
(dp146
VgameId
p147
V4590
p148
sVblueTeams
p149
(lp150
g7
asVcompetition
p151
Vdistrict1
p152
sVcomments
p153
V
p154
sVdate
p155
I1551981463
sVredTeams
p156
(lp157
g7
assV_index
p158
Vgames
p159
sasS'.kibana'
p160
(lp161
(dp162
V_type
p163
Vconfig
p164
sV_id
p165
V5.6.5
p166
sV_source
p167
(dp168
VbuildNum
p169
I15592
sVdefaultIndex
p170
VAWlZdw1fwyl-cBw3RzKY
p171
ssV_index
p172
V.kibana
p173
sa(dp174
V_type
p175
Vindex-pattern
p176
sV_id
p177
VAWlZdw1fwyl-cBw3RzKY
p178
sV_source
p179
(dp180
Vfields
p181
V[{"name":"_id","type":"string","count":0,"scripted":false,"searchable":true,"aggregatable":false,"readFromDocValues":false},{"name":"_index","type":"string","count":0,"scripted":false,"searchable":true,"aggregatable":true,"readFromDocValues":false},{"name":"_score","type":"number","count":0,"scripted":false,"searchable":false,"aggregatable":false,"readFromDocValues":false},{"name":"_source","type":"_source","count":0,"scripted":false,"searchable":false,"aggregatable":false,"readFromDocValues":false},{"name":"_type","type":"string","count":0,"scripted":false,"searchable":true,"aggregatable":true,"readFromDocValues":false},{"name":"accessCount","type":"number","count":0,"scripted":false,"searchable":true,"aggregatable":true,"readFromDocValues":true},{"name":"accessDate","type":"date","count":0,"scripted":false,"searchable":true,"aggregatable":true,"readFromDocValues":true},{"name":"alliedTeam","type":"number","count":0,"scripted":false,"searchable":true,"aggregatable":true,"readFromDocValues":true},{"name":"blueTeamScore","type":"number","count":0,"scripted":false,"searchable":true,"aggregatable":true,"readFromDocValues":true},{"name":"blueTeams","type":"number","count":0,"scripted":false,"searchable":true,"aggregatable":true,"readFromDocValues":true},{"name":"buildNum","type":"string","count":0,"scripted":false,"searchable":true,"aggregatable":true,"readFromDocValues":true},{"name":"columns","type":"string","count":0,"scripted":false,"searchable":true,"aggregatable":true,"readFromDocValues":true},{"name":"comments","type":"string","count":0,"scripted":false,"searchable":true,"aggregatable":false,"readFromDocValues":false},{"name":"competition","type":"string","count":0,"scripted":false,"searchable":true,"aggregatable":true,"readFromDocValues":true},{"name":"content","type":"string","count":0,"scripted":false,"searchable":true,"aggregatable":false,"readFromDocValues":false},{"name":"createDate","type":"date","count":0,"scripted":false,"searchable":true,"aggregatable":true,"readFromDocValues":true},{"name":"date","type":"number","count":0,"scripted":false,"searchable":true,"aggregatable":true,"readFromDocValues":true},{"name":"defaultIndex","type":"string","count":0,"scripted":false,"searchable":true,"aggregatable":false,"readFromDocValues":false},{"name":"defaultIndex.keyword","type":"string","count":0,"scripted":false,"searchable":true,"aggregatable":true,"readFromDocValues":true},{"name":"description","type":"string","count":0,"scripted":false,"searchable":true,"aggregatable":false,"readFromDocValues":false},{"name":"duration","type":"number","count":0,"scripted":false,"searchable":true,"aggregatable":true,"readFromDocValues":true},{"name":"endTime","type":"number","count":0,"scripted":false,"searchable":true,"aggregatable":true,"readFromDocValues":true},{"name":"enemyTeam","type":"number","count":0,"scripted":false,"searchable":true,"aggregatable":true,"readFromDocValues":true},{"name":"eventName","type":"string","count":0,"scripted":false,"searchable":true,"aggregatable":true,"readFromDocValues":true},{"name":"failReason","type":"string","count":0,"scripted":false,"searchable":true,"aggregatable":true,"readFromDocValues":true},{"name":"fieldFormatMap","type":"string","count":0,"scripted":false,"searchable":true,"aggregatable":false,"readFromDocValues":false},{"name":"fields","type":"string","count":0,"scripted":false,"searchable":true,"aggregatable":false,"readFromDocValues":false},{"name":"fightReason","type":"string","count":0,"scripted":false,"searchable":true,"aggregatable":true,"readFromDocValues":true},{"name":"gameId","type":"number","count":0,"scripted":false,"searchable":true,"aggregatable":true,"readFromDocValues":true},{"name":"hits","type":"number","count":0,"scripted":false,"searchable":true,"aggregatable":true,"readFromDocValues":true},{"name":"importantGames","type":"number","count":0,"scripted":false,"searchable":true,"aggregatable":true,"readFromDocValues":true},{"name":"initiated","type":"boolean","count":0,"scripted":false,"searchable":true,"aggregatable":true,"readFromDocValues":true},{"name":"intervalName","type":"string","count":0,"scripted":false,"searchable":true,"aggregatable":true,"readFromDocValues":true},{"name":"kibanaSavedObjectMeta.searchSourceJSON","type":"string","count":0,"scripted":false,"searchable":true,"aggregatable":false,"readFromDocValues":false},{"name":"level","type":"number","count":0,"scripted":false,"searchable":true,"aggregatable":true,"readFromDocValues":true},{"name":"location","type":"string","count":0,"scripted":false,"searchable":true,"aggregatable":true,"readFromDocValues":true},{"name":"matchPart","type":"string","count":0,"scripted":false,"searchable":true,"aggregatable":true,"readFromDocValues":true},{"name":"notExpandable","type":"boolean","count":0,"scripted":false,"searchable":true,"aggregatable":true,"readFromDocValues":true},{"name":"optionsJSON","type":"string","count":0,"scripted":false,"searchable":true,"aggregatable":false,"readFromDocValues":false},{"name":"panelsJSON","type":"string","count":0,"scripted":false,"searchable":true,"aggregatable":false,"readFromDocValues":false},{"name":"pickup.competition","type":"string","count":0,"scripted":false,"searchable":true,"aggregatable":false,"readFromDocValues":false},{"name":"pickup.competition.keyword","type":"string","count":0,"scripted":false,"searchable":true,"aggregatable":true,"readFromDocValues":true},{"name":"pickup.endTime","type":"number","count":0,"scripted":false,"searchable":true,"aggregatable":true,"readFromDocValues":true},{"name":"pickup.eventName","type":"string","count":0,"scripted":false,"searchable":true,"aggregatable":false,"readFromDocValues":false},{"name":"pickup.eventName.keyword","type":"string","count":0,"scripted":false,"searchable":true,"aggregatable":true,"readFromDocValues":true},{"name":"pickup.failReason","type":"string","count":0,"scripted":false,"searchable":true,"aggregatable":false,"readFromDocValues":false},{"name":"pickup.failReason.keyword","type":"string","count":0,"scripted":false,"searchable":true,"aggregatable":true,"readFromDocValues":true},{"name":"pickup.gameId","type":"number","count":0,"scripted":false,"searchable":true,"aggregatable":true,"readFromDocValues":true},{"name":"pickup.location","type":"string","count":0,"scripted":false,"searchable":true,"aggregatable":false,"readFromDocValues":false},{"name":"pickup.location.keyword","type":"string","count":0,"scripted":false,"searchable":true,"aggregatable":true,"readFromDocValues":true},{"name":"pickup.matchPart","type":"string","count":0,"scripted":false,"searchable":true,"aggregatable":false,"readFromDocValues":false},{"name":"pickup.matchPart.keyword","type":"string","count":0,"scripted":false,"searchable":true,"aggregatable":true,"readFromDocValues":true},{"name":"pickup.startTime","type":"number","count":0,"scripted":false,"searchable":true,"aggregatable":true,"readFromDocValues":true},{"name":"pickup.status","type":"string","count":0,"scripted":false,"searchable":true,"aggregatable":false,"readFromDocValues":false},{"name":"pickup.status.keyword","type":"string","count":0,"scripted":false,"searchable":true,"aggregatable":true,"readFromDocValues":true},{"name":"pickup.teamNumber","type":"number","count":0,"scripted":false,"searchable":true,"aggregatable":true,"readFromDocValues":true},{"name":"pickup.type","type":"string","count":0,"scripted":false,"searchable":true,"aggregatable":false,"readFromDocValues":false},{"name":"pickup.type.keyword","type":"string","count":0,"scripted":false,"searchable":true,"aggregatable":true,"readFromDocValues":true},{"name":"place.competition","type":"string","count":0,"scripted":false,"searchable":true,"aggregatable":false,"readFromDocValues":false},{"name":"place.competition.keyword","type":"string","count":0,"scripted":false,"searchable":true,"aggregatable":true,"readFromDocValues":true},{"name":"place.endTime","type":"number","count":0,"scripted":false,"searchable":true,"aggregatable":true,"readFromDocValues":true},{"name":"place.eventName","type":"string","count":0,"scripted":false,"searchable":true,"aggregatable":false,"readFromDocValues":false},{"name":"place.eventName.keyword","type":"string","count":0,"scripted":false,"searchable":true,"aggregatable":true,"readFromDocValues":true},{"name":"place.failReason","type":"string","count":0,"scripted":false,"searchable":true,"aggregatable":false,"readFromDocValues":false},{"name":"place.failReason.keyword","type":"string","count":0,"scripted":false,"searchable":true,"aggregatable":true,"readFromDocValues":true},{"name":"place.gameId","type":"number","count":0,"scripted":false,"searchable":true,"aggregatable":true,"readFromDocValues":true},{"name":"place.level","type":"number","count":0,"scripted":false,"searchable":true,"aggregatable":true,"readFromDocValues":true},{"name":"place.location","type":"string","count":0,"scripted":false,"searchable":true,"aggregatable":false,"readFromDocValues":false},{"name":"place.location.keyword","type":"string","count":0,"scripted":false,"searchable":true,"aggregatable":true,"readFromDocValues":true},{"name":"place.matchPart","type":"string","count":0,"scripted":false,"searchable":true,"aggregatable":false,"readFromDocValues":false},{"name":"place.matchPart.keyword","type":"string","count":0,"scripted":false,"searchable":true,"aggregatable":true,"readFromDocValues":true},{"name":"place.side","type":"string","count":0,"scripted":false,"searchable":true,"aggregatable":false,"readFromDocValues":false},{"name":"place.side.keyword","type":"string","count":0,"scripted":false,"searchable":true,"aggregatable":true,"readFromDocValues":true},{"name":"place.startTime","type":"number","count":0,"scripted":false,"searchable":true,"aggregatable":true,"readFromDocValues":true},{"name":"place.status","type":"string","count":0,"scripted":false,"searchable":true,"aggregatable":false,"readFromDocValues":false},{"name":"place.status.keyword","type":"string","count":0,"scripted":false,"searchable":true,"aggregatable":true,"readFromDocValues":true},{"name":"place.teamNumber","type":"number","count":0,"scripted":false,"searchable":true,"aggregatable":true,"readFromDocValues":true},{"name":"place.type","type":"string","count":0,"scripted":false,"searchable":true,"aggregatable":false,"readFromDocValues":false},{"name":"place.type.keyword","type":"string","count":0,"scripted":false,"searchable":true,"aggregatable":true,"readFromDocValues":true},{"name":"reason","type":"string","count":0,"scripted":false,"searchable":true,"aggregatable":true,"readFromDocValues":true},{"name":"recovered","type":"boolean","count":0,"scripted":false,"searchable":true,"aggregatable":true,"readFromDocValues":true},{"name":"redTeamScore","type":"number","count":0,"scripted":false,"searchable":true,"aggregatable":true,"readFromDocValues":true},{"name":"redTeams","type":"number","count":0,"scripted":false,"searchable":true,"aggregatable":true,"readFromDocValues":true},{"name":"refreshInterval.display","type":"string","count":0,"scripted":false,"searchable":true,"aggregatable":true,"readFromDocValues":true},{"name":"refreshInterval.pause","type":"boolean","count":0,"scripted":false,"searchable":true,"aggregatable":true,"readFromDocValues":true},{"name":"refreshInterval.section","type":"number","count":0,"scripted":false,"searchable":true,"aggregatable":true,"readFromDocValues":true},{"name":"refreshInterval.value","type":"number","count":0,"scripted":false,"searchable":true,"aggregatable":true,"readFromDocValues":true},{"name":"reviewedGames","type":"number","count":0,"scripted":false,"searchable":true,"aggregatable":true,"readFromDocValues":true},{"name":"savedSearchId","type":"string","count":0,"scripted":false,"searchable":true,"aggregatable":true,"readFromDocValues":true},{"name":"sort","type":"string","count":0,"scripted":false,"searchable":true,"aggregatable":true,"readFromDocValues":true},{"name":"sourceFilters","type":"string","count":0,"scripted":false,"searchable":true,"aggregatable":false,"readFromDocValues":false},{"name":"startTime","type":"number","count":0,"scripted":false,"searchable":true,"aggregatable":true,"readFromDocValues":true},{"name":"status","type":"string","count":0,"scripted":false,"searchable":true,"aggregatable":true,"readFromDocValues":true},{"name":"teamNumber","type":"number","count":0,"scripted":false,"searchable":true,"aggregatable":true,"readFromDocValues":true},{"name":"timeFieldName","type":"string","count":0,"scripted":false,"searchable":true,"aggregatable":true,"readFromDocValues":true},{"name":"timeFrom","type":"string","count":0,"scripted":false,"searchable":true,"aggregatable":true,"readFromDocValues":true},{"name":"timeRestore","type":"boolean","count":0,"scripted":false,"searchable":true,"aggregatable":true,"readFromDocValues":true},{"name":"timeTo","type":"string","count":0,"scripted":false,"searchable":true,"aggregatable":true,"readFromDocValues":true},{"name":"timeTook","type":"number","count":0,"scripted":false,"searchable":true,"aggregatable":true,"readFromDocValues":true},{"name":"timelion_chart_height","type":"number","count":0,"scripted":false,"searchable":true,"aggregatable":true,"readFromDocValues":true},{"name":"timelion_columns","type":"number","count":0,"scripted":false,"searchable":true,"aggregatable":true,"readFromDocValues":true},{"name":"timelion_interval","type":"string","count":0,"scripted":false,"searchable":true,"aggregatable":true,"readFromDocValues":true},{"name":"timelion_other_interval","type":"string","count":0,"scripted":false,"searchable":true,"aggregatable":true,"readFromDocValues":true},{"name":"timelion_rows","type":"number","count":0,"scripted":false,"searchable":true,"aggregatable":true,"readFromDocValues":true},{"name":"timelion_sheet","type":"string","count":0,"scripted":false,"searchable":true,"aggregatable":false,"readFromDocValues":false},{"name":"title","type":"string","count":0,"scripted":false,"searchable":true,"aggregatable":false,"readFromDocValues":false},{"name":"type","type":"string","count":0,"scripted":false,"searchable":true,"aggregatable":true,"readFromDocValues":true},{"name":"uiStateJSON","type":"string","count":0,"scripted":false,"searchable":true,"aggregatable":false,"readFromDocValues":false},{"name":"unwantedGames","type":"number","count":0,"scripted":false,"searchable":true,"aggregatable":true,"readFromDocValues":true},{"name":"url","type":"string","count":0,"scripted":false,"searchable":true,"aggregatable":false,"readFromDocValues":false},{"name":"url.keyword","type":"string","count":0,"scripted":false,"searchable":true,"aggregatable":true,"readFromDocValues":true},{"name":"uuid","type":"string","count":0,"scripted":false,"searchable":true,"aggregatable":true,"readFromDocValues":true},{"name":"version","type":"number","count":0,"scripted":false,"searchable":true,"aggregatable":true,"readFromDocValues":true},{"name":"visState","type":"string","count":0,"scripted":false,"searchable":true,"aggregatable":false,"readFromDocValues":false},{"name":"winningAlliance","type":"string","count":0,"scripted":false,"searchable":true,"aggregatable":true,"readFromDocValues":true}]
p182
sVnotExpandable
p183
I01
sVtimeFieldName
p184
VcreateDate
p185
sVtitle
p186
V*
p187
ssV_index
p188
V.kibana
p189
sa(dp190
V_type
p191
Vvisualization
p192
sV_id
p193
VAWlZgf6gwyl-cBw3RzKx
p194
sV_source
p195
(dp196
VvisState
p197
V{"title":"Place Locations Pie","type":"pie","params":{"addLegend":true,"addTooltip":true,"isDonut":false,"legendPosition":"right","type":"pie"},"aggs":[{"id":"1","enabled":true,"type":"count","schema":"metric","params":{}},{"id":"2","enabled":true,"type":"terms","schema":"segment","params":{"field":"place.location.keyword","size":2,"order":"desc","orderBy":"1","customLabel":"Location"}},{"id":"3","enabled":true,"type":"terms","schema":"segment","params":{"field":"place.level","size":3,"order":"desc","orderBy":"1","customLabel":"Level"}}],"listeners":{}}
p198
sVdescription
p199
g154
sVtitle
p200
VPlace Locations Pie
p201
sVuiStateJSON
p202
V{}
p203
sVversion
p204
I1
sVkibanaSavedObjectMeta
p205
(dp206
VsearchSourceJSON
p207
V{"index":"AWlZd2q7wyl-cBw3RzKZ","query":{"query_string":{"analyze_wildcard":true,"query":"_type:\u005c"cycle\u005c""}},"filter":[]}
p208
sssV_index
p209
V.kibana
p210
sa(dp211
V_type
p212
Vvisualization
p213
sV_id
p214
VAWlZjt6vwyl-cBw3RzK3
p215
sV_source
p216
(dp217
VvisState
p218
V{"title":"Cycle Frequency Heatmap","type":"heatmap","params":{"addTooltip":true,"addLegend":true,"enableHover":false,"legendPosition":"right","times":[],"colorsNumber":4,"colorSchema":"Greens","setColorRange":false,"colorsRange":[],"invertColors":false,"percentageMode":false,"valueAxes":[{"show":false,"id":"ValueAxis-1","type":"value","scale":{"type":"linear","defaultYExtents":false},"labels":{"show":false,"rotate":0,"color":"#555"}}],"type":"heatmap"},"aggs":[{"id":"1","enabled":true,"type":"count","schema":"metric","params":{}},{"id":"2","enabled":true,"type":"terms","schema":"segment","params":{"field":"pickup.location.keyword","size":2,"order":"desc","orderBy":"1","customLabel":"Locatipn"}},{"id":"3","enabled":true,"type":"terms","schema":"group","params":{"field":"place.location.keyword","size":5,"order":"desc","orderBy":"1","customLabel":"Place"}}],"listeners":{}}
p219
sVdescription
p220
g154
sVtitle
p221
VCycle Frequency Heatmap
p222
sVuiStateJSON
p223
V{"vis":{"defaultColors":{"0 - 1":"rgb(247,252,245)","1 - 1":"rgb(199,233,192)","1 - 2":"rgb(116,196,118)","2 - 2":"rgb(35,139,69)"}}}
p224
sVversion
p225
I1
sVkibanaSavedObjectMeta
p226
(dp227
VsearchSourceJSON
p228
V{"index":"AWlZd2q7wyl-cBw3RzKZ","query":{"match_all":{}},"filter":[]}
p229
sssV_index
p230
V.kibana
p231
sa(dp232
V_type
p233
Vvisualization
p234
sV_id
p235
VAWlZj_DSwyl-cBw3RzK4
p236
sV_source
p237
(dp238
VvisState
p239
V{"title":"Cycle Time Took Heatmap","type":"heatmap","params":{"addTooltip":true,"addLegend":true,"enableHover":false,"legendPosition":"right","times":[],"colorsNumber":4,"colorSchema":"Greens","setColorRange":false,"colorsRange":[],"invertColors":false,"percentageMode":false,"valueAxes":[{"show":false,"id":"ValueAxis-1","type":"value","scale":{"type":"linear","defaultYExtents":false},"labels":{"show":false,"rotate":0,"color":"#555"}}],"type":"heatmap"},"aggs":[{"id":"1","enabled":true,"type":"avg","schema":"metric","params":{"field":"timeTook"}},{"id":"2","enabled":true,"type":"terms","schema":"segment","params":{"field":"pickup.location.keyword","size":2,"order":"desc","orderBy":"1","customLabel":"Locatipn"}},{"id":"3","enabled":true,"type":"terms","schema":"group","params":{"field":"place.location.keyword","size":5,"order":"desc","orderBy":"1","customLabel":"Place"}}],"listeners":{}}
p240
sVdescription
p241
g154
sVtitle
p242
VCycle Time Took Heatmap
p243
sVuiStateJSON
p244
V{"vis":{"defaultColors":{"0":"rgb(247,252,245)"}}}
p245
sVversion
p246
I1
sVkibanaSavedObjectMeta
p247
(dp248
VsearchSourceJSON
p249
V{"index":"AWlZd2q7wyl-cBw3RzKZ","query":{"match_all":{}},"filter":[]}
p250
sssV_index
p251
V.kibana
p252
sa(dp253
V_type
p254
Vvisualization
p255
sV_id
p256
VAWlZnAQdwyl-cBw3RzK_
p257
sV_source
p258
(dp259
VvisState
p260
V{"aggs":[{"enabled":true,"id":"1","params":{"customLabel":"Avg","field":"timeTook"},"schema":"metric","type":"avg"},{"enabled":true,"id":"2","params":{"field":"level","order":"desc","orderBy":"1","size":3},"schema":"group","type":"terms"}],"listeners":{},"params":{"addLegend":false,"addTooltip":true,"gauge":{"autoExtend":false,"backStyle":"Full","colorSchema":"Green to Red","colorsRange":[{"from":0,"to":100}],"gaugeColorMode":"None","gaugeStyle":"Full","gaugeType":"Metric","invertColors":false,"labels":{"color":"black","show":true},"orientation":"vertical","percentageMode":false,"scale":{"color":"#333","labels":false,"show":false,"width":2},"style":{"bgColor":false,"fontSize":60,"labelColor":false,"subText":""},"type":"simple","useRange":false,"verticalSplit":false},"type":"gauge"},"title":"Climb Times","type":"metric"}
p261
sVdescription
p262
g154
sVtitle
p263
VClimb Times
p264
sVuiStateJSON
p265
V{"vis":{"defaultColors":{"0 - 100":"rgb(0,104,55)"}}}
p266
sVversion
p267
I1
sVkibanaSavedObjectMeta
p268
(dp269
VsearchSourceJSON
p270
V{"index":"AWlZd2q7wyl-cBw3RzKZ","query":{"query_string":{"query":"_type:\u005c"climb\u005c" and status:\u005c"Success\u005c"","analyze_wildcard":true}},"filter":[]}
p271
sssV_index
p272
V.kibana
p273
sa(dp274
V_type
p275
Vindex-pattern
p276
sV_id
p277
VAWlZd2q7wyl-cBw3RzKZ
p278
sV_source
p279
(dp280
Vfields
p281
V[{"name":"_id","type":"string","count":0,"scripted":false,"searchable":true,"aggregatable":false,"readFromDocValues":false},{"name":"_index","type":"string","count":0,"scripted":false,"searchable":true,"aggregatable":true,"readFromDocValues":false},{"name":"_score","type":"number","count":0,"scripted":false,"searchable":false,"aggregatable":false,"readFromDocValues":false},{"name":"_source","type":"_source","count":0,"scripted":false,"searchable":false,"aggregatable":false,"readFromDocValues":false},{"name":"_type","type":"string","count":0,"scripted":false,"searchable":true,"aggregatable":true,"readFromDocValues":false},{"name":"alliedTeam","type":"number","count":0,"scripted":false,"searchable":true,"aggregatable":true,"readFromDocValues":true},{"name":"competition","type":"string","count":0,"scripted":false,"searchable":true,"aggregatable":true,"readFromDocValues":true},{"name":"content","type":"string","count":3,"scripted":false,"searchable":true,"aggregatable":false,"readFromDocValues":false},{"name":"duration","type":"number","count":0,"scripted":false,"searchable":true,"aggregatable":true,"readFromDocValues":true},{"name":"endTime","type":"number","count":0,"scripted":false,"searchable":true,"aggregatable":true,"readFromDocValues":true},{"name":"enemyTeam","type":"number","count":0,"scripted":false,"searchable":true,"aggregatable":true,"readFromDocValues":true},{"name":"eventName","type":"string","count":0,"scripted":false,"searchable":true,"aggregatable":true,"readFromDocValues":true},{"name":"failReason","type":"string","count":0,"scripted":false,"searchable":true,"aggregatable":true,"readFromDocValues":true},{"name":"fightReason","type":"string","count":0,"scripted":false,"searchable":true,"aggregatable":true,"readFromDocValues":true},{"name":"gameId","type":"number","count":0,"scripted":false,"searchable":true,"aggregatable":true,"readFromDocValues":true},{"name":"initiated","type":"boolean","count":0,"scripted":false,"searchable":true,"aggregatable":true,"readFromDocValues":true},{"name":"level","type":"number","count":0,"scripted":false,"searchable":true,"aggregatable":true,"readFromDocValues":true},{"name":"location","type":"string","count":0,"scripted":false,"searchable":true,"aggregatable":true,"readFromDocValues":true},{"name":"matchPart","type":"string","count":0,"scripted":false,"searchable":true,"aggregatable":true,"readFromDocValues":true},{"name":"pickup.competition","type":"string","count":0,"scripted":false,"searchable":true,"aggregatable":false,"readFromDocValues":false},{"name":"pickup.competition.keyword","type":"string","count":0,"scripted":false,"searchable":true,"aggregatable":true,"readFromDocValues":true},{"name":"pickup.endTime","type":"number","count":0,"scripted":false,"searchable":true,"aggregatable":true,"readFromDocValues":true},{"name":"pickup.eventName","type":"string","count":0,"scripted":false,"searchable":true,"aggregatable":false,"readFromDocValues":false},{"name":"pickup.eventName.keyword","type":"string","count":0,"scripted":false,"searchable":true,"aggregatable":true,"readFromDocValues":true},{"name":"pickup.failReason","type":"string","count":0,"scripted":false,"searchable":true,"aggregatable":false,"readFromDocValues":false},{"name":"pickup.failReason.keyword","type":"string","count":0,"scripted":false,"searchable":true,"aggregatable":true,"readFromDocValues":true},{"name":"pickup.gameId","type":"number","count":0,"scripted":false,"searchable":true,"aggregatable":true,"readFromDocValues":true},{"name":"pickup.location","type":"string","count":0,"scripted":false,"searchable":true,"aggregatable":false,"readFromDocValues":false},{"name":"pickup.location.keyword","type":"string","count":0,"scripted":false,"searchable":true,"aggregatable":true,"readFromDocValues":true},{"name":"pickup.matchPart","type":"string","count":0,"scripted":false,"searchable":true,"aggregatable":false,"readFromDocValues":false},{"name":"pickup.matchPart.keyword","type":"string","count":0,"scripted":false,"searchable":true,"aggregatable":true,"readFromDocValues":true},{"name":"pickup.startTime","type":"number","count":0,"scripted":false,"searchable":true,"aggregatable":true,"readFromDocValues":true},{"name":"pickup.status","type":"string","count":0,"scripted":false,"searchable":true,"aggregatable":false,"readFromDocValues":false},{"name":"pickup.status.keyword","type":"string","count":0,"scripted":false,"searchable":true,"aggregatable":true,"readFromDocValues":true},{"name":"pickup.teamNumber","type":"number","count":0,"scripted":false,"searchable":true,"aggregatable":true,"readFromDocValues":true},{"name":"pickup.type","type":"string","count":0,"scripted":false,"searchable":true,"aggregatable":false,"readFromDocValues":false},{"name":"pickup.type.keyword","type":"string","count":0,"scripted":false,"searchable":true,"aggregatable":true,"readFromDocValues":true},{"name":"place.competition","type":"string","count":0,"scripted":false,"searchable":true,"aggregatable":false,"readFromDocValues":false},{"name":"place.competition.keyword","type":"string","count":0,"scripted":false,"searchable":true,"aggregatable":true,"readFromDocValues":true},{"name":"place.endTime","type":"number","count":0,"scripted":false,"searchable":true,"aggregatable":true,"readFromDocValues":true},{"name":"place.eventName","type":"string","count":0,"scripted":false,"searchable":true,"aggregatable":false,"readFromDocValues":false},{"name":"place.eventName.keyword","type":"string","count":0,"scripted":false,"searchable":true,"aggregatable":true,"readFromDocValues":true},{"name":"place.failReason","type":"string","count":0,"scripted":false,"searchable":true,"aggregatable":false,"readFromDocValues":false},{"name":"place.failReason.keyword","type":"string","count":0,"scripted":false,"searchable":true,"aggregatable":true,"readFromDocValues":true},{"name":"place.gameId","type":"number","count":0,"scripted":false,"searchable":true,"aggregatable":true,"readFromDocValues":true},{"name":"place.level","type":"number","count":0,"scripted":false,"searchable":true,"aggregatable":true,"readFromDocValues":true},{"name":"place.location","type":"string","count":0,"scripted":false,"searchable":true,"aggregatable":false,"readFromDocValues":false},{"name":"place.location.keyword","type":"string","count":0,"scripted":false,"searchable":true,"aggregatable":true,"readFromDocValues":true},{"name":"place.matchPart","type":"string","count":0,"scripted":false,"searchable":true,"aggregatable":false,"readFromDocValues":false},{"name":"place.matchPart.keyword","type":"string","count":0,"scripted":false,"searchable":true,"aggregatable":true,"readFromDocValues":true},{"name":"place.side","type":"string","count":0,"scripted":false,"searchable":true,"aggregatable":false,"readFromDocValues":false},{"name":"place.side.keyword","type":"string","count":0,"scripted":false,"searchable":true,"aggregatable":true,"readFromDocValues":true},{"name":"place.startTime","type":"number","count":0,"scripted":false,"searchable":true,"aggregatable":true,"readFromDocValues":true},{"name":"place.status","type":"string","count":0,"scripted":false,"searchable":true,"aggregatable":false,"readFromDocValues":false},{"name":"place.status.keyword","type":"string","count":0,"scripted":false,"searchable":true,"aggregatable":true,"readFromDocValues":true},{"name":"place.teamNumber","type":"number","count":0,"scripted":false,"searchable":true,"aggregatable":true,"readFromDocValues":true},{"name":"place.type","type":"string","count":0,"scripted":false,"searchable":true,"aggregatable":false,"readFromDocValues":false},{"name":"place.type.keyword","type":"string","count":0,"scripted":false,"searchable":true,"aggregatable":true,"readFromDocValues":true},{"name":"reason","type":"string","count":0,"scripted":false,"searchable":true,"aggregatable":true,"readFromDocValues":true},{"name":"recovered","type":"boolean","count":0,"scripted":false,"searchable":true,"aggregatable":true,"readFromDocValues":true},{"name":"startTime","type":"number","count":0,"scripted":false,"searchable":true,"aggregatable":true,"readFromDocValues":true},{"name":"status","type":"string","count":0,"scripted":false,"searchable":true,"aggregatable":true,"readFromDocValues":true},{"name":"teamNumber","type":"number","count":0,"scripted":false,"searchable":true,"aggregatable":true,"readFromDocValues":true},{"name":"timeTook","type":"number","count":0,"scripted":false,"searchable":true,"aggregatable":true,"readFromDocValues":true},{"name":"type","type":"string","count":0,"scripted":false,"searchable":true,"aggregatable":true,"readFromDocValues":true}]
p282
sVnotExpandable
p283
I01
sVtitle
p284
Vevents
p285
ssV_index
p286
V.kibana
p287
sa(dp288
V_type
p289
Vsearch
p290
sV_id
p291
VAWlZq7qyGDC-Bgj3eBPg
p292
sV_source
p293
(dp294
Vsort
p295
(lp296
V_score
p297
aVdesc
p298
asVhits
p299
I0
sVdescription
p300
g154
sVtitle
p301
VComments about team
p302
sVversion
p303
I1
sVkibanaSavedObjectMeta
p304
(dp305
VsearchSourceJSON
p306
V{"index":"AWlZd2q7wyl-cBw3RzKZ","highlightAll":true,"version":true,"query":{"query_string":{"query":"_type:\u005c"comment\u005c" and teamNumber:0","analyze_wildcard":true}},"filter":[]}
p307
ssVcolumns
p308
(lp309
Vcontent
p310
assV_index
p311
V.kibana
p312
sa(dp313
V_type
p314
Vdashboard
p315
sV_id
p316
VAWlZngXZwyl-cBw3RzLA
p317
sV_source
p318
(dp319
Vhits
p320
I0
sVtimeRestore
p321
I00
sVdescription
p322
g154
sVtitle
p323
VTeam Overview
p324
sVuiStateJSON
p325
V{"P-1":{"vis":{"defaultColors":{"0 - 100":"rgb(0,104,55)"}}},"P-2":{"vis":{"defaultColors":{"0 - 1":"rgb(247,252,245)","1 - 1":"rgb(199,233,192)","1 - 2":"rgb(116,196,118)","2 - 2":"rgb(35,139,69)"}}},"P-3":{"vis":{"defaultColors":{"0 - 12":"rgb(247,252,245)","12 - 23":"rgb(199,233,192)","23 - 34":"rgb(116,196,118)","34 - 45":"rgb(35,139,69)"}}}}
p326
sVpanelsJSON
p327
V[{"size_x":6,"size_y":3,"panelIndex":1,"type":"visualization","id":"AWlZnAQdwyl-cBw3RzK_","col":1,"row":1},{"size_x":6,"size_y":3,"panelIndex":2,"type":"visualization","id":"AWlZjt6vwyl-cBw3RzK3","col":7,"row":1},{"size_x":6,"size_y":3,"panelIndex":3,"type":"visualization","id":"AWlZj_DSwyl-cBw3RzK4","col":1,"row":4},{"size_x":6,"size_y":3,"panelIndex":4,"type":"visualization","id":"AWlZgf6gwyl-cBw3RzKx","col":7,"row":4},{"size_x":12,"size_y":3,"panelIndex":5,"type":"search","id":"AWlZq7qyGDC-Bgj3eBPg","col":1,"row":7,"columns":["content"],"sort":["_score","desc"]}]
p328
sVoptionsJSON
p329
V{"darkTheme":false}
p330
sVversion
p331
I1
sVkibanaSavedObjectMeta
p332
(dp333
VsearchSourceJSON
p334
V{"filter":[{"query":{"match_all":{}}}],"highlightAll":true,"version":true}
p335
sssV_index
p336
V.kibana
p337
sasS'events_mapping'
p338
(dp339
Vevents
p340
(dp341
Vmappings
p342
(dp343
Vcomment
p344
(dp345
Vproperties
p346
(dp347
VeventName
p348
(dp349
Vtype
p350
Vkeyword
p351
ssVgameId
p352
(dp353
Vtype
p354
Vinteger
p355
ssVteamNumber
p356
(dp357
Vtype
p358
Vinteger
p359
ssVtimeTook
p360
(dp361
Vtype
p362
Vlong
p363
ssVcompetition
p364
(dp365
Vtype
p366
Vkeyword
p367
ssVcontent
p368
(dp369
Vtype
p370
Vtext
p371
ssVstartTime
p372
(dp373
Vtype
p374
Vinteger
p375
ssVendTime
p376
(dp377
Vtype
p378
Vinteger
p379
ssssVgearPlace
p380
(dp381
Vproperties
p382
(dp383
Vstatus
p384
(dp385
Vtype
p386
Vkeyword
p387
ssVmatchPart
p388
(dp389
Vtype
p390
Vkeyword
p391
ssVgameId
p392
(dp393
Vtype
p394
Vinteger
p395
ssVteamNumber
p396
(dp397
Vtype
p398
Vinteger
p399
ssVcompetition
p400
(dp401
Vtype
p402
Vkeyword
p403
ssVfailReason
p404
(dp405
Vtype
p406
Vkeyword
p407
ssVlocation
p408
(dp409
Vtype
p410
Vkeyword
p411
ssVstartTime
p412
(dp413
Vtype
p414
Vinteger
p415
ssVduration
p416
(dp417
Vtype
p418
Vinteger
p419
ssVendTime
p420
(dp421
Vtype
p422
Vinteger
p423
ssssVfight
p424
(dp425
Vproperties
p426
(dp427
ValliedTeam
p428
(dp429
Vtype
p430
Vinteger
p431
ssVmatchPart
p432
(dp433
Vtype
p434
Vkeyword
p435
ssVgameId
p436
(dp437
Vtype
p438
Vinteger
p439
ssVstartTime
p440
(dp441
Vtype
p442
Vinteger
p443
ssVinitiated
p444
(dp445
Vtype
p446
Vboolean
p447
ssVcompetition
p448
(dp449
Vtype
p450
Vkeyword
p451
ssVeventName
p452
(dp453
Vtype
p454
Vkeyword
p455
ssVfailReason
p456
(dp457
Vtype
p458
Vkeyword
p459
ssVstatus
p460
(dp461
Vtype
p462
Vkeyword
p463
ssVfightReason
p464
(dp465
Vtype
p466
Vkeyword
p467
ssVenemyTeam
p468
(dp469
Vtype
p470
Vinteger
p471
ssVduration
p472
(dp473
Vtype
p474
Vinteger
p475
ssVendTime
p476
(dp477
Vtype
p478
Vinteger
p479
ssVteamNumber
p480
(dp481
Vtype
p482
Vinteger
p483
ssssVdisabled
p484
(dp485
Vproperties
p486
(dp487
VmatchPart
p488
(dp489
Vtype
p490
Vkeyword
p491
ssVgameId
p492
(dp493
Vtype
p494
Vinteger
p495
ssVteamNumber
p496
(dp497
Vtype
p498
Vinteger
p499
ssVcompetition
p500
(dp501
Vtype
p502
Vkeyword
p503
ssVeventName
p504
(dp505
Vtype
p506
Vkeyword
p507
ssVreason
p508
(dp509
Vtype
p510
Vkeyword
p511
ssVstartTime
p512
(dp513
Vtype
p514
Vinteger
p515
ssVduration
p516
(dp517
Vtype
p518
Vinteger
p519
ssVendTime
p520
(dp521
Vtype
p522
Vinteger
p523
ssVrecovered
p524
(dp525
Vtype
p526
Vboolean
p527
ssssVpickup
p528
(dp529
Vproperties
p530
(dp531
Vstatus
p532
(dp533
Vtype
p534
Vkeyword
p535
ssVmatchPart
p536
(dp537
Vtype
p538
Vkeyword
p539
ssVgameId
p540
(dp541
Vtype
p542
Vinteger
p543
ssVteamNumber
p544
(dp545
Vtype
p546
Vinteger
p547
ssVcompetition
p548
(dp549
Vtype
p550
Vkeyword
p551
ssVfailReason
p552
(dp553
Vtype
p554
Vkeyword
p555
ssVlocation
p556
(dp557
Vtype
p558
Vkeyword
p559
ssVstartTime
p560
(dp561
Vtype
p562
Vinteger
p563
ssVduration
p564
(dp565
Vtype
p566
Vinteger
p567
ssVendTime
p568
(dp569
Vtype
p570
Vinteger
p571
ssVtype
p572
(dp573
Vtype
p574
Vkeyword
p575
ssssVplace
p576
(dp577
Vproperties
p578
(dp579
Vstatus
p580
(dp581
Vtype
p582
Vkeyword
p583
ssVmatchPart
p584
(dp585
Vtype
p586
Vkeyword
p587
ssVgameId
p588
(dp589
Vtype
p590
Vinteger
p591
ssVteamNumber
p592
(dp593
Vtype
p594
Vinteger
p595
ssVtimeTook
p596
(dp597
Vtype
p598
Vlong
p599
ssVlevel
p600
(dp601
Vtype
p602
Vlong
p603
ssVcompetition
p604
(dp605
Vtype
p606
Vkeyword
p607
ssVfailReason
p608
(dp609
Vtype
p610
Vkeyword
p611
ssVlocation
p612
(dp613
Vtype
p614
Vkeyword
p615
ssVstartTime
p616
(dp617
Vtype
p618
Vinteger
p619
ssVendTime
p620
(dp621
Vtype
p622
Vinteger
p623
ssVtype
p624
(dp625
Vtype
p626
Vkeyword
p627
ssssVclimb
p628
(dp629
Vproperties
p630
(dp631
Vstatus
p632
(dp633
Vtype
p634
Vkeyword
p635
ssVmatchPart
p636
(dp637
Vtype
p638
Vkeyword
p639
ssVgameId
p640
(dp641
Vtype
p642
Vinteger
p643
ssVteamNumber
p644
(dp645
Vtype
p646
Vinteger
p647
ssVtimeTook
p648
(dp649
Vtype
p650
Vlong
p651
ssVlevel
p652
(dp653
Vtype
p654
Vlong
p655
ssVcompetition
p656
(dp657
Vtype
p658
Vkeyword
p659
ssVeventName
p660
(dp661
Vtype
p662
Vkeyword
p663
ssVfailReason
p664
(dp665
Vtype
p666
Vkeyword
p667
ssVstartTime
p668
(dp669
Vtype
p670
Vinteger
p671
ssVduration
p672
(dp673
Vtype
p674
Vinteger
p675
ssVendTime
p676
(dp677
Vtype
p678
Vinteger
p679
ssssVshooting
p680
(dp681
Vproperties
p682
(dp683
Vstatus
p684
(dp685
Vtype
p686
Vkeyword
p687
ssVmatchPart
p688
(dp689
Vtype
p690
Vkeyword
p691
ssVgameId
p692
(dp693
Vtype
p694
Vinteger
p695
ssVteamNumber
p696
(dp697
Vtype
p698
Vinteger
p699
ssVcompetition
p700
(dp701
Vtype
p702
Vkeyword
p703
ssVfailReason
p704
(dp705
Vtype
p706
Vkeyword
p707
ssVlocation
p708
(dp709
Vtype
p710
Vkeyword
p711
ssVstartTime
p712
(dp713
Vtype
p714
Vinteger
p715
ssVduration
p716
(dp717
Vtype
p718
Vinteger
p719
ssVendTime
p720
(dp721
Vtype
p722
Vinteger
p723
ssssVcycle
p724
(dp725
Vproperties
p726
(dp727
Vstatus
p728
(dp729
Vtype
p730
Vkeyword
p731
ssVmatchPart
p732
(dp733
Vtype
p734
Vkeyword
p735
ssVgameId
p736
(dp737
Vtype
p738
Vinteger
p739
ssVteamNumber
p740
(dp741
Vtype
p742
Vinteger
p743
ssVtimeTook
p744
(dp745
Vtype
p746
Vlong
p747
ssVpickup
p748
(dp749
Vproperties
p750
(dp751
Vstatus
p752
(dp753
Vfields
p754
(dp755
Vkeyword
p756
(dp757
Vignore_above
p758
I256
sVtype
p759
Vkeyword
p760
sssVtype
p761
Vtext
p762
ssVmatchPart
p763
(dp764
Vfields
p765
(dp766
Vkeyword
p767
(dp768
Vignore_above
p769
I256
sVtype
p770
Vkeyword
p771
sssVtype
p772
Vtext
p773
ssVgameId
p774
(dp775
Vtype
p776
Vlong
p777
ssVteamNumber
p778
(dp779
Vtype
p780
Vlong
p781
ssVcompetition
p782
(dp783
Vfields
p784
(dp785
Vkeyword
p786
(dp787
Vignore_above
p788
I256
sVtype
p789
Vkeyword
p790
sssVtype
p791
Vtext
p792
ssVeventName
p793
(dp794
Vfields
p795
(dp796
Vkeyword
p797
(dp798
Vignore_above
p799
I256
sVtype
p800
Vkeyword
p801
sssVtype
p802
Vtext
p803
ssVfailReason
p804
(dp805
Vfields
p806
(dp807
Vkeyword
p808
(dp809
Vignore_above
p810
I256
sVtype
p811
Vkeyword
p812
sssVtype
p813
Vtext
p814
ssVlocation
p815
(dp816
Vfields
p817
(dp818
Vkeyword
p819
(dp820
Vignore_above
p821
I256
sVtype
p822
Vkeyword
p823
sssVtype
p824
Vtext
p825
ssVstartTime
p826
(dp827
Vtype
p828
Vlong
p829
ssVendTime
p830
(dp831
Vtype
p832
Vlong
p833
ssVtype
p834
(dp835
Vfields
p836
(dp837
Vkeyword
p838
(dp839
Vignore_above
p840
I256
sVtype
p841
Vkeyword
p842
sssVtype
p843
Vtext
p844
ssssVcompetition
p845
(dp846
Vtype
p847
Vkeyword
p848
ssVfailReason
p849
(dp850
Vtype
p851
Vkeyword
p852
ssVplace
p853
(dp854
Vproperties
p855
(dp856
Vstatus
p857
(dp858
Vfields
p859
(dp860
Vkeyword
p861
(dp862
Vignore_above
p863
I256
sVtype
p864
Vkeyword
p865
sssVtype
p866
Vtext
p867
ssVmatchPart
p868
(dp869
Vfields
p870
(dp871
Vkeyword
p872
(dp873
Vignore_above
p874
I256
sVtype
p875
Vkeyword
p876
sssVtype
p877
Vtext
p878
ssVgameId
p879
(dp880
Vtype
p881
Vlong
p882
ssVteamNumber
p883
(dp884
Vtype
p885
Vlong
p886
ssVlevel
p887
(dp888
Vtype
p889
Vlong
p890
ssVcompetition
p891
(dp892
Vfields
p893
(dp894
Vkeyword
p895
(dp896
Vignore_above
p897
I256
sVtype
p898
Vkeyword
p899
sssVtype
p900
Vtext
p901
ssVeventName
p902
(dp903
Vfields
p904
(dp905
Vkeyword
p906
(dp907
Vignore_above
p908
I256
sVtype
p909
Vkeyword
p910
sssVtype
p911
Vtext
p912
ssVfailReason
p913
(dp914
Vfields
p915
(dp916
Vkeyword
p917
(dp918
Vignore_above
p919
I256
sVtype
p920
Vkeyword
p921
sssVtype
p922
Vtext
p923
ssVlocation
p924
(dp925
Vfields
p926
(dp927
Vkeyword
p928
(dp929
Vignore_above
p930
I256
sVtype
p931
Vkeyword
p932
sssVtype
p933
Vtext
p934
ssVstartTime
p935
(dp936
Vtype
p937
Vlong
p938
ssVendTime
p939
(dp940
Vtype
p941
Vlong
p942
ssVtype
p943
(dp944
Vfields
p945
(dp946
Vkeyword
p947
(dp948
Vignore_above
p949
I256
sVtype
p950
Vkeyword
p951
sssVtype
p952
Vtext
p953
ssVside
p954
(dp955
Vfields
p956
(dp957
Vkeyword
p958
(dp959
Vignore_above
p960
I256
sVtype
p961
Vkeyword
p962
sssVtype
p963
Vtext
p964
ssssVstartTime
p965
(dp966
Vtype
p967
Vinteger
p968
ssVendTime
p969
(dp970
Vtype
p971
Vinteger
p972
sssssssS'events'
p973
(lp974
(dp975
V_type
p976
Vcycle
p977
sV_id
p978
VAWlZeP5owyl-cBw3RzKl
p979
sV_source
p980
(dp981
Vstatus
p982
VSuccess
p983
sVmatchPart
p984
Vteleop
p985
sVgameId
p986
I4590
sVteamNumber
p987
I1
sVtimeTook
p988
I0
sVcompetition
p989
Vdistrict1
p990
sVpickup
p991
(dp992
Vstatus
p993
VSuccess
p994
sVmatchPart
p995
Vteleop
p996
sVgameId
p997
I4590
sVteamNumber
p998
I1
sVcompetition
p999
Vdistrict1
p1000
sVeventName
p1001
Vpickup
p1002
sVlocation
p1003
VFloor
p1004
sVstartTime
p1005
I191
sVendTime
p1006
I191
sVtype
p1007
VHatch Panel
p1008
ssVplace
p1009
(dp1010
Vstatus
p1011
VSuccess
p1012
sVmatchPart
p1013
Vteleop
p1014
sVgameId
p1015
I4590
sVteamNumber
p1016
I1
sVlevel
p1017
I3
sVcompetition
p1018
Vdistrict1
p1019
sVeventName
p1020
Vplace
p1021
sVlocation
p1022
VRight Rocket
p1023
sVstartTime
p1024
I191
sVendTime
p1025
I191
sVtype
p1026
VHatch Panel
p1027
ssVstartTime
p1028
I191
sVendTime
p1029
I191
ssV_index
p1030
Vevents
p1031
sa(dp1032
V_type
p1033
Vcycle
p1034
sV_id
p1035
VAWlZgEExwyl-cBw3RzKu
p1036
sV_source
p1037
(dp1038
Vstatus
p1039
VSuccess
p1040
sVmatchPart
p1041
Vteleop
p1042
sVgameId
p1043
I4590
sVteamNumber
p1044
I1
sVtimeTook
p1045
I0
sVcompetition
p1046
Vdistrict1
p1047
sVpickup
p1048
(dp1049
Vstatus
p1050
VSuccess
p1051
sVmatchPart
p1052
Vteleop
p1053
sVgameId
p1054
I4590
sVteamNumber
p1055
I1
sVcompetition
p1056
Vdistrict1
p1057
sVeventName
p1058
Vpickup
p1059
sVlocation
p1060
VFeeder
p1061
sVstartTime
p1062
I191
sVendTime
p1063
I191
sVtype
p1064
VHatch Panel
p1065
ssVplace
p1066
(dp1067
Vstatus
p1068
VSuccess
p1069
sVmatchPart
p1070
Vteleop
p1071
sVgameId
p1072
I4590
sVteamNumber
p1073
I1
sVlevel
p1074
I1
sVcompetition
p1075
Vdistrict1
p1076
sVeventName
p1077
Vplace
p1078
sVlocation
p1079
VLeft Rocket
p1080
sVstartTime
p1081
I191
sVendTime
p1082
I191
sVtype
p1083
VHatch Panel
p1084
ssVstartTime
p1085
I191
sVendTime
p1086
I191
ssV_index
p1087
Vevents
p1088
sa(dp1089
V_type
p1090
Vcomment
p1091
sV_id
p1092
VAWlZohyGwyl-cBw3RzLD
p1093
sV_source
p1094
(dp1095
VgameId
p1096
I4590
sVteamNumber
p1097
I1
sVtimeTook
p1098
I0
sVcompetition
p1099
Vdistrict1
p1100
sVcontent
p1101
Vsdf
p1102
sVstartTime
p1103
I391
sVendTime
p1104
I391
ssV_index
p1105
Vevents
p1106
sa(dp1107
V_type
p1108
Vcycle
p1109
sV_id
p1110
VAWlZeKQWwyl-cBw3RzKa
p1111
sV_source
p1112
(dp1113
Vstatus
p1114
VSuccess
p1115
sVmatchPart
p1116
Vteleop
p1117
sVgameId
p1118
I4590
sVteamNumber
p1119
I1
sVtimeTook
p1120
I0
sVcompetition
p1121
Vdistrict1
p1122
sVpickup
p1123
(dp1124
Vstatus
p1125
VSuccess
p1126
sVmatchPart
p1127
Vteleop
p1128
sVgameId
p1129
I4590
sVteamNumber
p1130
I1
sVcompetition
p1131
Vdistrict1
p1132
sVeventName
p1133
Vpickup
p1134
sVlocation
p1135
VFeeder
p1136
sVstartTime
p1137
I191
sVendTime
p1138
I191
sVtype
p1139
VHatch Panel
p1140
ssVplace
p1141
(dp1142
Vstatus
p1143
VSuccess
p1144
sVmatchPart
p1145
Vteleop
p1146
sVgameId
p1147
I4590
sVteamNumber
p1148
I1
sVlevel
p1149
I3
sVcompetition
p1150
Vdistrict1
p1151
sVeventName
p1152
Vplace
p1153
sVlocation
p1154
VRight Rocket
p1155
sVstartTime
p1156
I191
sVendTime
p1157
I191
sVtype
p1158
VHatch Panel
p1159
ssVstartTime
p1160
I191
sVendTime
p1161
I191
ssV_index
p1162
Vevents
p1163
sa(dp1164
V_type
p1165
Vclimb
p1166
sV_id
p1167
VAWlZeK6jwyl-cBw3RzKc
p1168
sV_source
p1169
(dp1170
Vstatus
p1171
VSuccess
p1172
sVmatchPart
p1173
Vteleop
p1174
sVgameId
p1175
I4590
sVteamNumber
p1176
I1
sVtimeTook
p1177
I0
sVlevel
p1178
I2
sVcompetition
p1179
Vdistrict1
p1180
sVstartTime
p1181
I191
sVendTime
p1182
I191
ssV_index
p1183
Vevents
p1184
sa(dp1185
V_type
p1186
Vplace
p1187
sV_id
p1188
VAWlZeNTowyl-cBw3RzKi
p1189
sV_source
p1190
(dp1191
Vstatus
p1192
VSuccess
p1193
sVmatchPart
p1194
Vteleop
p1195
sVgameId
p1196
I4590
sVteamNumber
p1197
I1
sVtimeTook
p1198
I0
sVlevel
p1199
I2
sVcompetition
p1200
Vdistrict1
p1201
sVlocation
p1202
VRight Rocket
p1203
sVstartTime
p1204
I191
sVendTime
p1205
I191
sVtype
p1206
VHatch Panel
p1207
ssV_index
p1208
Vevents
p1209
sa(dp1210
V_type
p1211
Vcycle
p1212
sV_id
p1213
VAWlZgFx0wyl-cBw3RzKv
p1214
sV_source
p1215
(dp1216
Vstatus
p1217
VSuccess
p1218
sVmatchPart
p1219
Vteleop
p1220
sVgameId
p1221
I4590
sVteamNumber
p1222
I1
sVtimeTook
p1223
I0
sVcompetition
p1224
Vdistrict1
p1225
sVpickup
p1226
(dp1227
Vstatus
p1228
VSuccess
p1229
sVmatchPart
p1230
Vteleop
p1231
sVgameId
p1232
I4590
sVteamNumber
p1233
I1
sVcompetition
p1234
Vdistrict1
p1235
sVeventName
p1236
Vpickup
p1237
sVlocation
p1238
VFeeder
p1239
sVstartTime
p1240
I191
sVendTime
p1241
I191
sVtype
p1242
VHatch Panel
p1243
ssVplace
p1244
(dp1245
Vstatus
p1246
VSuccess
p1247
sVmatchPart
p1248
Vteleop
p1249
sVgameId
p1250
I4590
sVteamNumber
p1251
I1
sVlevel
p1252
I2
sVcompetition
p1253
Vdistrict1
p1254
sVeventName
p1255
Vplace
p1256
sVlocation
p1257
VRight Rocket
p1258
sVstartTime
p1259
I191
sVendTime
p1260
I191
sVtype
p1261
VHatch Panel
p1262
ssVstartTime
p1263
I191
sVendTime
p1264
I191
ssV_index
p1265
Vevents
p1266
sa(dp1267
V_type
p1268
Vclimb
p1269
sV_id
p1270
VAWlZeLuXwyl-cBw3RzKe
p1271
sV_source
p1272
(dp1273
Vstatus
p1274
VFailure
p1275
sVmatchPart
p1276
Vteleop
p1277
sVgameId
p1278
I4590
sVteamNumber
p1279
I1
sVtimeTook
p1280
I0
sVlevel
p1281
I1
sVcompetition
p1282
Vdistrict1
p1283
sVfailReason
p1284
VFailed because of mechanical failure
p1285
sVstartTime
p1286
I191
sVendTime
p1287
I191
ssV_index
p1288
Vevents
p1289
sa(dp1290
V_type
p1291
Vclimb
p1292
sV_id
p1293
VAWlZeMVKwyl-cBw3RzKg
p1294
sV_source
p1295
(dp1296
Vstatus
p1297
VFailure
p1298
sVmatchPart
p1299
Vteleop
p1300
sVgameId
p1301
I4590
sVteamNumber
p1302
I1
sVtimeTook
p1303
I0
sVlevel
p1304
I3
sVcompetition
p1305
Vdistrict1
p1306
sVfailReason
p1307
VFailed because of interruption
p1308
sVstartTime
p1309
I191
sVendTime
p1310
I191
ssV_index
p1311
Vevents
p1312
sa(dp1313
V_type
p1314
Vclimb
p1315
sV_id
p1316
VAWlZeNrCwyl-cBw3RzKj
p1317
sV_source
p1318
(dp1319
Vstatus
p1320
VSuccess
p1321
sVmatchPart
p1322
Vteleop
p1323
sVgameId
p1324
I4590
sVteamNumber
p1325
I1
sVtimeTook
p1326
I0
sVlevel
p1327
I2
sVcompetition
p1328
Vdistrict1
p1329
sVstartTime
p1330
I191
sVendTime
p1331
I191
ssV_index
p1332
Vevents
p1333
sa(dp1334
V_type
p1335
Vcycle
p1336
sV_id
p1337
VAWlZeOZZwyl-cBw3RzKk
p1338
sV_source
p1339
(dp1340
Vstatus
p1341
VFailure
p1342
sVmatchPart
p1343
Vteleop
p1344
sVgameId
p1345
I4590
sVteamNumber
p1346
I1
sVtimeTook
p1347
I0
sVpickup
p1348
(dp1349
Vstatus
p1350
VFailure
p1351
sVmatchPart
p1352
Vteleop
p1353
sVgameId
p1354
I4590
sVteamNumber
p1355
I1
sVcompetition
p1356
Vdistrict1
p1357
sVeventName
p1358
Vpickup
p1359
sVfailReason
p1360
VFailed because of interruption
p1361
sVlocation
p1362
VFloor
p1363
sVstartTime
p1364
I191
sVendTime
p1365
I191
sVtype
p1366
VCargo
p1367
ssVcompetition
p1368
Vdistrict1
p1369
sVfailReason
p1370
VFailed because of interruption
p1371
sVstartTime
p1372
I191
sVendTime
p1373
I191
ssV_index
p1374
Vevents
p1375
sa(dp1376
V_type
p1377
Vcycle
p1378
sV_id
p1379
VAWlZgSMewyl-cBw3RzKw
p1380
sV_source
p1381
(dp1382
Vstatus
p1383
VSuccess
p1384
sVmatchPart
p1385
Vteleop
p1386
sVgameId
p1387
I4590
sVteamNumber
p1388
I1
sVtimeTook
p1389
I0
sVcompetition
p1390
Vdistrict1
p1391
sVpickup
p1392
(dp1393
Vstatus
p1394
VSuccess
p1395
sVmatchPart
p1396
Vteleop
p1397
sVgameId
p1398
I4590
sVteamNumber
p1399
I1
sVcompetition
p1400
Vdistrict1
p1401
sVeventName
p1402
Vpickup
p1403
sVlocation
p1404
VFloor
p1405
sVstartTime
p1406
I191
sVendTime
p1407
I191
sVtype
p1408
VHatch Panel
p1409
ssVplace
p1410
(dp1411
Vstatus
p1412
VSuccess
p1413
sVmatchPart
p1414
Vteleop
p1415
sVgameId
p1416
I4590
sVteamNumber
p1417
I1
sVlevel
p1418
I2
sVcompetition
p1419
Vdistrict1
p1420
sVeventName
p1421
Vplace
p1422
sVlocation
p1423
VLeft Rocket
p1424
sVstartTime
p1425
I191
sVendTime
p1426
I191
sVtype
p1427
VHatch Panel
p1428
ssVstartTime
p1429
I191
sVendTime
p1430
I191
ssV_index
p1431
Vevents
p1432
sa(dp1433
V_type
p1434
Vcycle
p1435
sV_id
p1436
VAWlZkDVowyl-cBw3RzK5
p1437
sV_source
p1438
(dp1439
Vstatus
p1440
VSuccess
p1441
sVmatchPart
p1442
Vteleop
p1443
sVgameId
p1444
I4590
sVteamNumber
p1445
I1
sVtimeTook
p1446
I42
sVcompetition
p1447
Vdistrict1
p1448
sVpickup
p1449
(dp1450
Vstatus
p1451
VSuccess
p1452
sVmatchPart
p1453
Vteleop
p1454
sVgameId
p1455
I4590
sVteamNumber
p1456
I1
sVcompetition
p1457
Vdistrict1
p1458
sVeventName
p1459
Vpickup
p1460
sVlocation
p1461
VFloor
p1462
sVstartTime
p1463
I191
sVendTime
p1464
I201
sVtype
p1465
VHatch Panel
p1466
ssVplace
p1467
(dp1468
Vstatus
p1469
VSuccess
p1470
sVmatchPart
p1471
Vteleop
p1472
sVgameId
p1473
I4590
sVteamNumber
p1474
I1
sVlevel
p1475
I1
sVcompetition
p1476
Vdistrict1
p1477
sVeventName
p1478
Vplace
p1479
sVlocation
p1480
VCargoship
p1481
sVstartTime
p1482
I201
sVendTime
p1483
I233
sVtype
p1484
VHatch Panel
p1485
ssVstartTime
p1486
I191
sVendTime
p1487
I233
ssV_index
p1488
Vevents
p1489
sa(dp1490
V_type
p1491
Vcomment
p1492
sV_id
p1493
VAWlZkWEEwyl-cBw3RzK6
p1494
sV_source
p1495
(dp1496
VgameId
p1497
I4590
sVteamNumber
p1498
I1
sVtimeTook
p1499
I0
sVcompetition
p1500
Vdistrict1
p1501
sVcontent
p1502
Vtest
p1503
sVstartTime
p1504
I233
sVendTime
p1505
I233
ssV_index
p1506
Vevents
p1507
sa(dp1508
V_type
p1509
Vclimb
p1510
sV_id
p1511
VAWlZeKiBwyl-cBw3RzKb
p1512
sV_source
p1513
(dp1514
Vstatus
p1515
VFailure
p1516
sVmatchPart
p1517
Vteleop
p1518
sVgameId
p1519
I4590
sVteamNumber
p1520
I1
sVtimeTook
p1521
I0
sVlevel
p1522
I2
sVcompetition
p1523
Vdistrict1
p1524
sVfailReason
p1525
VFailed because of mechanical failure
p1526
sVstartTime
p1527
I191
sVendTime
p1528
I191
ssV_index
p1529
Vevents
p1530
sa(dp1531
V_type
p1532
Vclimb
p1533
sV_id
p1534
VAWlZeMDZwyl-cBw3RzKf
p1535
sV_source
p1536
(dp1537
Vstatus
p1538
VSuccess
p1539
sVmatchPart
p1540
Vteleop
p1541
sVgameId
p1542
I4590
sVteamNumber
p1543
I1
sVtimeTook
p1544
I0
sVlevel
p1545
I1
sVcompetition
p1546
Vdistrict1
p1547
sVstartTime
p1548
I191
sVendTime
p1549
I191
ssV_index
p1550
Vevents
p1551
sa(dp1552
V_type
p1553
Vclimb
p1554
sV_id
p1555
VAWlZeM0Gwyl-cBw3RzKh
p1556
sV_source
p1557
(dp1558
Vstatus
p1559
VSuccess
p1560
sVmatchPart
p1561
Vteleop
p1562
sVgameId
p1563
I4590
sVteamNumber
p1564
I1
sVtimeTook
p1565
I0
sVlevel
p1566
I3
sVcompetition
p1567
Vdistrict1
p1568
sVstartTime
p1569
I191
sVendTime
p1570
I191
ssV_index
p1571
Vevents
p1572
sa(dp1573
V_type
p1574
Vcycle
p1575
sV_id
p1576
VAWlZeQhewyl-cBw3RzKm
p1577
sV_source
p1578
(dp1579
Vstatus
p1580
VFailure
p1581
sVmatchPart
p1582
Vteleop
p1583
sVgameId
p1584
I4590
sVteamNumber
p1585
I1
sVtimeTook
p1586
I0
sVpickup
p1587
(dp1588
Vstatus
p1589
VFailure
p1590
sVmatchPart
p1591
Vteleop
p1592
sVgameId
p1593
I4590
sVteamNumber
p1594
I1
sVcompetition
p1595
Vdistrict1
p1596
sVeventName
p1597
Vpickup
p1598
sVfailReason
p1599
VFailed because of mechanical failure
p1600
sVlocation
p1601
VFloor
p1602
sVstartTime
p1603
I191
sVendTime
p1604
I191
sVtype
p1605
VCargo
p1606
ssVcompetition
p1607
Vdistrict1
p1608
sVfailReason
p1609
VFailed because of mechanical failure
p1610
sVstartTime
p1611
I191
sVendTime
p1612
I191
ssV_index
p1613
Vevents
p1614
sa(dp1615
V_type
p1616
Vcomment
p1617
sV_id
p1618
VAWlZpkMKwyl-cBw3RzLF
p1619
sV_source
p1620
(dp1621
VgameId
p1622
I4590
sVteamNumber
p1623
I1
sVtimeTook
p1624
I0
sVcompetition
p1625
Vdistrict1
p1626
sVcontent
p1627
Vasdasdasd
p1628
sVstartTime
p1629
I391
sVendTime
p1630
I391
ssV_index
p1631
Vevents
p1632
sa(dp1633
V_type
p1634
Vclimb
p1635
sV_id
p1636
VAWlZeLYlwyl-cBw3RzKd
p1637
sV_source
p1638
(dp1639
Vstatus
p1640
VFailure
p1641
sVmatchPart
p1642
Vteleop
p1643
sVgameId
p1644
I4590
sVteamNumber
p1645
I1
sVtimeTook
p1646
I0
sVlevel
p1647
I2
sVcompetition
p1648
Vdistrict1
p1649
sVfailReason
p1650
VFailed because of mechanical failure
p1651
sVstartTime
p1652
I191
sVendTime
p1653
I191
ssV_index
p1654
Vevents
p1655
sa(dp1656
V_type
p1657
Vclimb
p1658
sV_id
p1659
VAWlZm58Ewyl-cBw3RzK-
p1660
sV_source
p1661
(dp1662
Vstatus
p1663
VSuccess
p1664
sVmatchPart
p1665
Vteleop
p1666
sVgameId
p1667
I4590
sVteamNumber
p1668
I1
sVtimeTook
p1669
I17
sVlevel
p1670
I1
sVcompetition
p1671
Vdistrict1
p1672
sVstartTime
p1673
I233
sVendTime
p1674
I250
ssV_index
p1675
Vevents
p1676
sas.